; Function Attrs: nounwind uwtable
define dso_local zeroext i1 @Curl_ipv6works(ptr noundef readonly %0) local_unnamed_addr #0 {
  %.not = icmp eq ptr %0, null
  br i1 %.not, label %18, label %2

2:                                                ; preds = %1
  %3 = getelementptr inbounds nuw i8, ptr %0, i64 192
  %4 = load ptr, ptr %3, align 8
  %5 = getelementptr inbounds nuw i8, ptr %4, i64 432
  %6 = load i8, ptr %5, align 8
  %7 = icmp eq i8 %6, 0
  br i1 %7, label %8, label %15

8:                                                ; preds = %2
  %9 = tail call i32 @socket(i32 noundef 10, i32 noundef 2, i32 noundef 0) #12
  %.not11 = icmp eq i32 %9, -1
  br i1 %.not11, label %Curl_ipv6works.exit, label %10

10:                                               ; preds = %8
  %11 = tail call i32 @close(i32 noundef %9) #12
  br label %Curl_ipv6works.exit

Curl_ipv6works.exit:                              ; preds = %8, %10
  %12 = phi i8 [ 1, %8 ], [ 2, %10 ]
  %13 = load ptr, ptr %3, align 8
  %14 = getelementptr inbounds nuw i8, ptr %13, i64 432
  store i8 %12, ptr %14, align 8
  %.pre = load ptr, ptr %3, align 8
  %.phi.trans.insert = getelementptr inbounds nuw i8, ptr %.pre, i64 432
  %.pre13 = load i8, ptr %.phi.trans.insert, align 8
  br label %15

15:                                               ; preds = %Curl_ipv6works.exit, %2
  %16 = phi i8 [ %.pre13, %Curl_ipv6works.exit ], [ %6, %2 ]
  %17 = icmp eq i8 %16, 2
  br label %22

18:                                               ; preds = %1
  %19 = tail call i32 @socket(i32 noundef 10, i32 noundef 2, i32 noundef 0) #12
  %.not12 = icmp eq i32 %19, -1
  br i1 %.not12, label %22, label %20

20:                                               ; preds = %18
  %21 = tail call i32 @close(i32 noundef %19) #12
  br label %22

22:                                               ; preds = %20, %18, %15
  %.0 = phi i1 [ %17, %15 ], [ false, %18 ], [ true, %20 ]
  ret i1 %.0
}